target datalayout = "e-m:e-p270:32:32-p271:32:32-p272:64:64-i64:64-i128:128-f80:128-n8:16:32:64-S128"
target triple = "x86_64-pc-linux-gnu"

%"class.std::__1::error_code" = type { i32, ptr }
%"class.std::__1::shared_ptr.1" = type { ptr, ptr }
%"class.std::__1::__fs::filesystem::recursive_directory_iterator" = type <{ %"class.std::__1::shared_ptr.1", i8, [7 x i8] }>
%"struct.std::__1::__fs::filesystem::recursive_directory_iterator::__shared_imp" = type <{ %"class.std::__1::stack", i8, [7 x i8] }>
%"class.std::__1::stack" = type { %"class.std::__1::deque" }
%"class.std::__1::deque" = type { %"struct.std::__1::__split_buffer", i64, i64 }
%"struct.std::__1::__split_buffer" = type { ptr, ptr, ptr, ptr }
%"class.std::__1::__shared_count" = type { ptr, i64 }

; Function Attrs: inlinehint mustprogress nounwind uwtable
define linkonce_odr hidden noundef i64 @_ZNSt3__134__libcpp_atomic_refcount_decrementB8ne210000IlEET_RS1_(ptr noundef nonnull align 8 dereferenceable(8) %0) #4 comdat {
  %2 = alloca ptr, align 8
  %3 = alloca i64, align 8
  %4 = alloca i64, align 8
  store ptr %0, ptr %2, align 8, !tbaa !125
  %5 = load ptr, ptr %2, align 8, !tbaa !125
  store i64 -1, ptr %3, align 8, !tbaa !58
  %6 = load i64, ptr %3, align 8
  %7 = atomicrmw add ptr %5, i64 %6 acq_rel, align 8
  %8 = add i64 %7, %6
  store i64 %8, ptr %4, align 8
  %9 = load i64, ptr %4, align 8, !tbaa !58
  ret i64 %9
}

; Function Attrs: mustprogress nounwind uwtable
define linkonce_odr hidden noundef zeroext i1 @_ZNSt3__114__shared_count16__release_sharedB8ne210000Ev(ptr noundef nonnull align 8 dereferenceable(16) %0) #1 comdat align 2 {
  %2 = alloca i1, align 1
  %3 = alloca ptr, align 8
  store ptr %0, ptr %3, align 8, !tbaa !175
  %4 = load ptr, ptr %3, align 8
  %5 = getelementptr inbounds nuw %"class.std::__1::__shared_count", ptr %4, i32 0, i32 1
  %6 = call noundef i64 @_ZNSt3__134__libcpp_atomic_refcount_decrementB8ne210000IlEET_RS1_(ptr noundef nonnull align 8 dereferenceable(8) %5) #20
  %7 = icmp eq i64 %6, -1
  br i1 %7, label %8, label %12

8:                                                ; preds = %1
  %9 = load ptr, ptr %4, align 8, !tbaa !104
  %10 = getelementptr inbounds ptr, ptr %9, i64 2
  %11 = load ptr, ptr %10, align 8
  call void %11(ptr noundef nonnull align 8 dereferenceable(16) %4) #20
  store i1 true, ptr %2, align 1
  br label %13

12:                                               ; preds = %1
  store i1 false, ptr %2, align 1
  br label %13

13:                                               ; preds = %12, %8
  %14 = load i1, ptr %2, align 1
  ret i1 %14
}

; Function Attrs: mustprogress nounwind uwtable
define linkonce_odr hidden void @_ZNSt3__119__shared_weak_count16__release_sharedB8ne210000Ev(ptr noundef nonnull align 8 dereferenceable(24) %0) #1 comdat align 2 {
  %2 = alloca ptr, align 8
  store ptr %0, ptr %2, align 8, !tbaa !174
  %3 = load ptr, ptr %2, align 8
  %4 = call noundef zeroext i1 @_ZNSt3__114__shared_count16__release_sharedB8ne210000Ev(ptr noundef nonnull align 8 dereferenceable(16) %3) #20
  br i1 %4, label %5, label %6

5:                                                ; preds = %1
  call void @_ZNSt3__119__shared_weak_count14__release_weakEv(ptr noundef nonnull align 8 dereferenceable(24) %3) #20
  br label %6

6:                                                ; preds = %5, %1
  ret void
}

; Function Attrs: inlinehint mustprogress nounwind uwtable
define linkonce_odr hidden void @_ZNSt3__14swapB8ne210000IPNS_19__shared_weak_countEEENS_9enable_ifIXaasr21is_move_constructibleIT_EE5valuesr18is_move_assignableIS4_EE5valueEvE4typeERS4_S7_(ptr noundef nonnull align 8 dereferenceable(8) %0, ptr noundef nonnull align 8 dereferenceable(8) %1) #4 comdat {
  %3 = alloca ptr, align 8
  %4 = alloca ptr, align 8
  %5 = alloca ptr, align 8
  store ptr %0, ptr %3, align 8, !tbaa !178
  store ptr %1, ptr %4, align 8, !tbaa !178
  call void @llvm.lifetime.start.p0(i64 8, ptr %5) #20
  %6 = load ptr, ptr %3, align 8, !tbaa !178
  %7 = load ptr, ptr %6, align 8, !tbaa !174
  store ptr %7, ptr %5, align 8, !tbaa !174
  %8 = load ptr, ptr %4, align 8, !tbaa !178
  %9 = load ptr, ptr %8, align 8, !tbaa !174
  %10 = load ptr, ptr %3, align 8, !tbaa !178
  store ptr %9, ptr %10, align 8, !tbaa !174
  %11 = load ptr, ptr %5, align 8, !tbaa !174
  %12 = load ptr, ptr %4, align 8, !tbaa !178
  store ptr %11, ptr %12, align 8, !tbaa !174
  call void @llvm.lifetime.end.p0(i64 8, ptr %5) #20
  ret void
}

; Function Attrs: inlinehint mustprogress nounwind uwtable
define linkonce_odr hidden void @_ZNSt3__14swapB8ne210000IPNS_4__fs10filesystem28recursive_directory_iterator12__shared_impEEENS_9enable_ifIXaasr21is_move_constructibleIT_EE5valuesr18is_move_assignableIS7_EE5valueEvE4typeERS7_SA_(ptr noundef nonnull align 8 dereferenceable(8) %0, ptr noundef nonnull align 8 dereferenceable(8) %1) #4 comdat {
  %3 = alloca ptr, align 8
  %4 = alloca ptr, align 8
  %5 = alloca ptr, align 8
  store ptr %0, ptr %3, align 8, !tbaa !180
  store ptr %1, ptr %4, align 8, !tbaa !180
  call void @llvm.lifetime.start.p0(i64 8, ptr %5) #20
  %6 = load ptr, ptr %3, align 8, !tbaa !180
  %7 = load ptr, ptr %6, align 8, !tbaa !182
  store ptr %7, ptr %5, align 8, !tbaa !182
  %8 = load ptr, ptr %4, align 8, !tbaa !180
  %9 = load ptr, ptr %8, align 8, !tbaa !182
  %10 = load ptr, ptr %3, align 8, !tbaa !180
  store ptr %9, ptr %10, align 8, !tbaa !182
  %11 = load ptr, ptr %5, align 8, !tbaa !182
  %12 = load ptr, ptr %4, align 8, !tbaa !180
  store ptr %11, ptr %12, align 8, !tbaa !182
  call void @llvm.lifetime.end.p0(i64 8, ptr %5) #20
  ret void
}

; Function Attrs: mustprogress nounwind uwtable
define linkonce_odr hidden noundef nonnull align 8 dereferenceable(8) ptr @_ZNKSt3__15dequeINS_4__fs10filesystem12__dir_streamENS_9allocatorIS3_EEE6__sizeB8ne210000Ev(ptr noundef nonnull align 8 dereferenceable(48) %0) #1 comdat align 2 {
  %2 = alloca ptr, align 8
  store ptr %0, ptr %2, align 8, !tbaa !252
  %3 = load ptr, ptr %2, align 8
  %4 = getelementptr inbounds nuw %"class.std::__1::deque", ptr %3, i32 0, i32 2
  ret ptr %4
}

; Function Attrs: mustprogress nounwind uwtable
define linkonce_odr hidden void @_ZNSt3__110shared_ptrINS_4__fs10filesystem28recursive_directory_iterator12__shared_impEED2B8ne210000Ev(ptr noundef nonnull align 8 dereferenceable(16) %0) unnamed_addr #1 comdat align 2 {
  %2 = alloca ptr, align 8
  store ptr %0, ptr %2, align 8, !tbaa !78
  %3 = load ptr, ptr %2, align 8
  %4 = getelementptr inbounds nuw %"class.std::__1::shared_ptr.1", ptr %3, i32 0, i32 1
  %5 = load ptr, ptr %4, align 8, !tbaa !83
  %6 = icmp ne ptr %5, null
  br i1 %6, label %7, label %10

7:                                                ; preds = %1
  %8 = getelementptr inbounds nuw %"class.std::__1::shared_ptr.1", ptr %3, i32 0, i32 1
  %9 = load ptr, ptr %8, align 8, !tbaa !83
  call void @_ZNSt3__119__shared_weak_count16__release_sharedB8ne210000Ev(ptr noundef nonnull align 8 dereferenceable(24) %9) #20
  br label %10

10:                                               ; preds = %7, %1
  ret void
}

; Function Attrs: mustprogress nounwind uwtable
define linkonce_odr hidden void @_ZNSt3__110shared_ptrINS_4__fs10filesystem28recursive_directory_iterator12__shared_impEE4swapB8ne210000ERS5_(ptr noundef nonnull align 8 dereferenceable(16) %0, ptr noundef nonnull align 8 dereferenceable(16) %1) #1 comdat align 2 {
  %3 = alloca ptr, align 8
  %4 = alloca ptr, align 8
  store ptr %0, ptr %3, align 8, !tbaa !78
  store ptr %1, ptr %4, align 8, !tbaa !78
  %5 = load ptr, ptr %3, align 8
  %6 = getelementptr inbounds nuw %"class.std::__1::shared_ptr.1", ptr %5, i32 0, i32 0
  %7 = load ptr, ptr %4, align 8, !tbaa !78
  %8 = getelementptr inbounds nuw %"class.std::__1::shared_ptr.1", ptr %7, i32 0, i32 0
  call void @_ZNSt3__14swapB8ne210000IPNS_4__fs10filesystem28recursive_directory_iterator12__shared_impEEENS_9enable_ifIXaasr21is_move_constructibleIT_EE5valuesr18is_move_assignableIS7_EE5valueEvE4typeERS7_SA_(ptr noundef nonnull align 8 dereferenceable(8) %6, ptr noundef nonnull align 8 dereferenceable(8) %8) #20
  %9 = getelementptr inbounds nuw %"class.std::__1::shared_ptr.1", ptr %5, i32 0, i32 1
  %10 = load ptr, ptr %4, align 8, !tbaa !78
  %11 = getelementptr inbounds nuw %"class.std::__1::shared_ptr.1", ptr %10, i32 0, i32 1
  call void @_ZNSt3__14swapB8ne210000IPNS_19__shared_weak_countEEENS_9enable_ifIXaasr21is_move_constructibleIT_EE5valuesr18is_move_assignableIS4_EE5valueEvE4typeERS4_S7_(ptr noundef nonnull align 8 dereferenceable(8) %9, ptr noundef nonnull align 8 dereferenceable(8) %11) #20
  ret void
}

; Function Attrs: mustprogress nounwind uwtable
define linkonce_odr hidden void @_ZNSt3__110shared_ptrINS_4__fs10filesystem28recursive_directory_iterator12__shared_impEEC2B8ne210000Ev(ptr noundef nonnull align 8 dereferenceable(16) %0) unnamed_addr #1 comdat align 2 {
  %2 = alloca ptr, align 8
  store ptr %0, ptr %2, align 8, !tbaa !78
  %3 = load ptr, ptr %2, align 8
  %4 = getelementptr inbounds nuw %"class.std::__1::shared_ptr.1", ptr %3, i32 0, i32 0
  store ptr null, ptr %4, align 8, !tbaa !82
  %5 = getelementptr inbounds nuw %"class.std::__1::shared_ptr.1", ptr %3, i32 0, i32 1
  store ptr null, ptr %5, align 8, !tbaa !83
  ret void
}

; Function Attrs: mustprogress nounwind uwtable
define linkonce_odr hidden noundef i64 @_ZNKSt3__15dequeINS_4__fs10filesystem12__dir_streamENS_9allocatorIS3_EEE4sizeB8ne210000Ev(ptr noundef nonnull align 8 dereferenceable(48) %0) #1 comdat align 2 {
  %2 = alloca ptr, align 8
  store ptr %0, ptr %2, align 8, !tbaa !252
  %3 = load ptr, ptr %2, align 8
  %4 = call noundef nonnull align 8 dereferenceable(8) ptr @_ZNKSt3__15dequeINS_4__fs10filesystem12__dir_streamENS_9allocatorIS3_EEE6__sizeB8ne210000Ev(ptr noundef nonnull align 8 dereferenceable(48) %3) #20
  %5 = load i64, ptr %4, align 8, !tbaa !58
  ret i64 %5
}

; Function Attrs: mustprogress nounwind uwtable
define linkonce_odr hidden void @_ZNSt3__110shared_ptrINS_4__fs10filesystem28recursive_directory_iterator12__shared_impEE5resetB8ne210000Ev(ptr noundef nonnull align 8 dereferenceable(16) %0) #1 comdat align 2 {
  %2 = alloca ptr, align 8
  %3 = alloca %"class.std::__1::shared_ptr.1", align 8
  store ptr %0, ptr %2, align 8, !tbaa !78
  %4 = load ptr, ptr %2, align 8
  call void @llvm.lifetime.start.p0(i64 16, ptr %3) #20
  call void @_ZNSt3__110shared_ptrINS_4__fs10filesystem28recursive_directory_iterator12__shared_impEEC2B8ne210000Ev(ptr noundef nonnull align 8 dereferenceable(16) %3) #20
  call void @_ZNSt3__110shared_ptrINS_4__fs10filesystem28recursive_directory_iterator12__shared_impEE4swapB8ne210000ERS5_(ptr noundef nonnull align 8 dereferenceable(16) %3, ptr noundef nonnull align 8 dereferenceable(16) %4) #20
  call void @_ZNSt3__110shared_ptrINS_4__fs10filesystem28recursive_directory_iterator12__shared_impEED2B8ne210000Ev(ptr noundef nonnull align 8 dereferenceable(16) %3) #20
  call void @llvm.lifetime.end.p0(i64 16, ptr %3) #20
  ret void
}

; Function Attrs: mustprogress nounwind uwtable
define linkonce_odr hidden noundef i64 @_ZNKSt3__15stackINS_4__fs10filesystem12__dir_streamENS_5dequeIS3_NS_9allocatorIS3_EEEEE4sizeB8ne210000Ev(ptr noundef nonnull align 8 dereferenceable(48) %0) #1 comdat align 2 {
  %2 = alloca ptr, align 8
  store ptr %0, ptr %2, align 8, !tbaa !87
  %3 = load ptr, ptr %2, align 8
  %4 = getelementptr inbounds nuw %"class.std::__1::stack", ptr %3, i32 0, i32 0
  %5 = call noundef i64 @_ZNKSt3__15dequeINS_4__fs10filesystem12__dir_streamENS_9allocatorIS3_EEE4sizeB8ne210000Ev(ptr noundef nonnull align 8 dereferenceable(48) %4) #20
  ret i64 %5
}

; Function Attrs: mustprogress uwtable
define linkonce_odr hidden void @_ZNSt3__15stackINS_4__fs10filesystem12__dir_streamENS_5dequeIS3_NS_9allocatorIS3_EEEEE3popB8ne210000Ev(ptr noundef nonnull align 8 dereferenceable(48) %0) #0 comdat align 2 {
  %2 = alloca ptr, align 8
  store ptr %0, ptr %2, align 8, !tbaa !87
  %3 = load ptr, ptr %2, align 8
  %4 = getelementptr inbounds nuw %"class.std::__1::stack", ptr %3, i32 0, i32 0
  call void @_ZNSt3__15dequeINS_4__fs10filesystem12__dir_streamENS_9allocatorIS3_EEE8pop_backB8ne210000Ev(ptr noundef nonnull align 8 dereferenceable(48) %4)
  ret void
}

; Function Attrs: mustprogress nounwind uwtable
define linkonce_odr hidden noundef ptr @_ZNKSt3__110shared_ptrINS_4__fs10filesystem28recursive_directory_iterator12__shared_impEEptB8ne210000Ev(ptr noundef nonnull align 8 dereferenceable(16) %0) #1 comdat align 2 {
  %2 = alloca ptr, align 8
  store ptr %0, ptr %2, align 8, !tbaa !78
  %3 = load ptr, ptr %2, align 8
  %4 = getelementptr inbounds nuw %"class.std::__1::shared_ptr.1", ptr %3, i32 0, i32 0
  %5 = load ptr, ptr %4, align 8, !tbaa !82
  ret ptr %5
}

; Function Attrs: mustprogress nounwind uwtable
define linkonce_odr hidden void @_ZNSt3__110error_code5clearB8ne210000Ev(ptr noundef nonnull align 8 dereferenceable(16) %0) #1 comdat align 2 {
  %2 = alloca ptr, align 8
  store ptr %0, ptr %2, align 8, !tbaa !11
  %3 = load ptr, ptr %2, align 8
  %4 = getelementptr inbounds nuw %"class.std::__1::error_code", ptr %3, i32 0, i32 0
  store i32 0, ptr %4, align 8, !tbaa !36
  %5 = call noundef nonnull align 8 dereferenceable(8) ptr @_ZNSt3__115system_categoryEv() #21
  %6 = getelementptr inbounds nuw %"class.std::__1::error_code", ptr %3, i32 0, i32 1
  store ptr %5, ptr %6, align 8, !tbaa !38
  ret void
}

; Function Attrs: mustprogress uwtable
define dso_local void @_ZNSt3__14__fs10filesystem28recursive_directory_iterator5__popEPNS_10error_codeE(ptr noundef nonnull align 8 dereferenceable(17) %0, ptr noundef %1) #0 align 2 {
  %3 = alloca ptr, align 8
  %4 = alloca ptr, align 8
  store ptr %0, ptr %3, align 8, !tbaa !64
  store ptr %1, ptr %4, align 8, !tbaa !11
  %5 = load ptr, ptr %3, align 8
  %6 = load ptr, ptr %4, align 8, !tbaa !11
  %7 = icmp ne ptr %6, null
  br i1 %7, label %8, label %10

8:                                                ; preds = %2
  %9 = load ptr, ptr %4, align 8, !tbaa !11
  call void @_ZNSt3__110error_code5clearB8ne210000Ev(ptr noundef nonnull align 8 dereferenceable(16) %9) #20
  br label %10

10:                                               ; preds = %8, %2
  %11 = getelementptr inbounds nuw %"class.std::__1::__fs::filesystem::recursive_directory_iterator", ptr %5, i32 0, i32 0
  %12 = call noundef ptr @_ZNKSt3__110shared_ptrINS_4__fs10filesystem28recursive_directory_iterator12__shared_impEEptB8ne210000Ev(ptr noundef nonnull align 8 dereferenceable(16) %11) #20
  %13 = getelementptr inbounds nuw %"struct.std::__1::__fs::filesystem::recursive_directory_iterator::__shared_imp", ptr %12, i32 0, i32 0
  call void @_ZNSt3__15stackINS_4__fs10filesystem12__dir_streamENS_5dequeIS3_NS_9allocatorIS3_EEEEE3popB8ne210000Ev(ptr noundef nonnull align 8 dereferenceable(48) %13)
  %14 = getelementptr inbounds nuw %"class.std::__1::__fs::filesystem::recursive_directory_iterator", ptr %5, i32 0, i32 0
  %15 = call noundef ptr @_ZNKSt3__110shared_ptrINS_4__fs10filesystem28recursive_directory_iterator12__shared_impEEptB8ne210000Ev(ptr noundef nonnull align 8 dereferenceable(16) %14) #20
  %16 = getelementptr inbounds nuw %"struct.std::__1::__fs::filesystem::recursive_directory_iterator::__shared_imp", ptr %15, i32 0, i32 0
  %17 = call noundef i64 @_ZNKSt3__15stackINS_4__fs10filesystem12__dir_streamENS_5dequeIS3_NS_9allocatorIS3_EEEEE4sizeB8ne210000Ev(ptr noundef nonnull align 8 dereferenceable(48) %16)
  %18 = icmp eq i64 %17, 0
  br i1 %18, label %19, label %21

19:                                               ; preds = %10
  %20 = getelementptr inbounds nuw %"class.std::__1::__fs::filesystem::recursive_directory_iterator", ptr %5, i32 0, i32 0
  call void @_ZNSt3__110shared_ptrINS_4__fs10filesystem28recursive_directory_iterator12__shared_impEE5resetB8ne210000Ev(ptr noundef nonnull align 8 dereferenceable(16) %20) #20
  br label %23

21:                                               ; preds = %10
  %22 = load ptr, ptr %4, align 8, !tbaa !11
  call void @_ZNSt3__14__fs10filesystem28recursive_directory_iterator9__advanceEPNS_10error_codeE(ptr noundef nonnull align 8 dereferenceable(17) %5, ptr noundef %22)
  br label %23

23:                                               ; preds = %21, %19
  ret void
}