; Function Attrs: mustprogress uwtable
define dso_local void @_ZNSt3__14__fs10filesystem28recursive_directory_iterator5__popEPNS_10error_codeE(ptr noundef nonnull align 8 captures(none) dereferenceable(17) %0, ptr noundef %1) local_unnamed_addr #0 align 2 {
  %.not = icmp eq ptr %1, null
  br i1 %.not, label %6, label %3

3:                                                ; preds = %2
  store i32 0, ptr %1, align 8, !tbaa !15
  %4 = tail call noundef nonnull align 8 dereferenceable(8) ptr @_ZNSt3__115system_categoryEv() #28
  %5 = getelementptr inbounds nuw i8, ptr %1, i64 8
  store ptr %4, ptr %5, align 8, !tbaa !19
  br label %6

6:                                                ; preds = %3, %2
  %7 = load ptr, ptr %0, align 8, !tbaa !79
  tail call void @_ZNSt3__15dequeINS_4__fs10filesystem12__dir_streamENS_9allocatorIS3_EEE8pop_backB8ne210000Ev(ptr noundef nonnull align 8 dereferenceable(48) %7)
  %8 = load ptr, ptr %0, align 8, !tbaa !79
  %9 = getelementptr inbounds nuw i8, ptr %8, i64 40
  %10 = load i64, ptr %9, align 8, !tbaa !91
  %11 = icmp eq i64 %10, 0
  br i1 %11, label %12, label %23

12:                                               ; preds = %6
  store ptr null, ptr %0, align 8, !tbaa !78
  %13 = getelementptr inbounds nuw i8, ptr %0, i64 8
  %14 = load ptr, ptr %13, align 8, !tbaa !29
  store ptr null, ptr %13, align 8, !tbaa !29
  %.not.i.i = icmp eq ptr %14, null
  br i1 %.not.i.i, label %_ZNSt3__110shared_ptrINS_4__fs10filesystem28recursive_directory_iterator12__shared_impEE5resetB8ne210000Ev.exit, label %15

15:                                               ; preds = %12
  %16 = getelementptr inbounds nuw i8, ptr %14, i64 8
  %17 = atomicrmw add ptr %16, i64 -1 acq_rel, align 8
  %18 = icmp eq i64 %17, 0
  br i1 %18, label %19, label %_ZNSt3__110shared_ptrINS_4__fs10filesystem28recursive_directory_iterator12__shared_impEE5resetB8ne210000Ev.exit

19:                                               ; preds = %15
  %20 = load ptr, ptr %14, align 8, !tbaa !25
  %21 = getelementptr inbounds nuw i8, ptr %20, i64 16
  %22 = load ptr, ptr %21, align 8
  tail call void %22(ptr noundef nonnull align 8 dereferenceable(24) %14) #27
  tail call void @_ZNSt3__119__shared_weak_count14__release_weakEv(ptr noundef nonnull align 8 dereferenceable(24) %14) #27
  br label %_ZNSt3__110shared_ptrINS_4__fs10filesystem28recursive_directory_iterator12__shared_impEE5resetB8ne210000Ev.exit

23:                                               ; preds = %6
  tail call void @_ZNSt3__14__fs10filesystem28recursive_directory_iterator9__advanceEPNS_10error_codeE(ptr noundef nonnull align 8 dereferenceable(17) %0, ptr noundef %1)
  br label %_ZNSt3__110shared_ptrINS_4__fs10filesystem28recursive_directory_iterator12__shared_impEE5resetB8ne210000Ev.exit

_ZNSt3__110shared_ptrINS_4__fs10filesystem28recursive_directory_iterator12__shared_impEE5resetB8ne210000Ev.exit: ; preds = %19, %15, %12, %23
  ret void
}